; Function Attrs: mustprogress null_pointer_is_valid sspstrong uwtable
define internal void @"_ZN9QtPrivate18QFunctorSlotObjectIZN19WiresharkMainWindow25connectAnalyzeMenuActionsEvE3$_2Li0ENS_4ListIJEEEvE4implEiPNS_15QSlotObjectBaseEP7QObjectPPvPb"(i32 noundef %0, ptr noundef %1, ptr readnone captures(none) %2, ptr readnone captures(none) %3, ptr readnone captures(none) %4) #0 align 2 personality ptr @__gxx_personality_v0 {
  %6 = alloca { i64, i64 }, align 8
  %7 = alloca { i64, i64 }, align 8
  %8 = alloca %"class.QMetaObject::Connection", align 8
  switch i32 %0, label %24 [
    i32 0, label %9
    i32 1, label %12
  ]

9:                                                ; preds = %5
  %10 = icmp eq ptr %1, null
  br i1 %10, label %24, label %11

11:                                               ; preds = %9
  tail call void @_ZdlPvm(ptr noundef nonnull %1, i64 noundef 24) #26
  br label %24

12:                                               ; preds = %5
  %13 = getelementptr inbounds nuw i8, ptr %1, i64 16
  %.val = load ptr, ptr %13, align 8
  call void @llvm.lifetime.start.p0(i64 8, ptr nonnull %8)
  %14 = tail call noalias noundef dereferenceable_or_null(128) ptr @_Znwm(i64 noundef 128) #28
  invoke void @_ZN29DisplayFilterExpressionDialogC1EP7QWidget(ptr noundef align 8 dereferenceable_or_null(128) %14, ptr noundef %.val)
          to label %"_ZN9QtPrivate7FunctorIZN19WiresharkMainWindow25connectAnalyzeMenuActionsEvE3$_2Li0EE4callINS_4ListIJEEEvEEvRS2_PvPS8_.exit" unwind label %15

15:                                               ; preds = %12
  %16 = landingpad { ptr, i32 }
          cleanup
  tail call void @_ZdlPvm(ptr noundef %14, i64 noundef 128) #26
  resume { ptr, i32 } %16

"_ZN9QtPrivate7FunctorIZN19WiresharkMainWindow25connectAnalyzeMenuActionsEvE3$_2Li0EE4callINS_4ListIJEEEvEEvRS2_PvPS8_.exit": ; preds = %12
  %17 = getelementptr inbounds nuw i8, ptr %.val, i64 304
  %18 = load ptr, ptr %17, align 8
  %19 = tail call noundef ptr @_ZNK9QComboBox8lineEditEv(ptr noundef align 8 dereferenceable_or_null(40) %18)
  %20 = tail call noundef ptr @_ZNK11QMetaObject4castEPK7QObject(ptr noundef nonnull align 8 dereferenceable_or_null(56) @_ZN14SyntaxLineEdit16staticMetaObjectE, ptr noundef %19)
  call void @llvm.lifetime.start.p0(i64 16, ptr nonnull %6)
  call void @llvm.lifetime.start.p0(i64 16, ptr nonnull %7)
  store i64 ptrtoint (ptr @_ZN29DisplayFilterExpressionDialog19insertDisplayFilterERK7QString to i64), ptr %6, align 8, !noalias !1040
  %.fca.1.gep12.i.i.i.i = getelementptr inbounds nuw i8, ptr %6, i64 8
  store i64 0, ptr %.fca.1.gep12.i.i.i.i, align 8, !noalias !1040
  store i64 ptrtoint (ptr @_ZN14SyntaxLineEdit12insertFilterERK7QString to i64), ptr %7, align 8, !noalias !1040
  %.fca.1.gep.i.i.i.i = getelementptr inbounds nuw i8, ptr %7, i64 8
  store i64 0, ptr %.fca.1.gep.i.i.i.i, align 8, !noalias !1040
  %21 = tail call noalias noundef dereferenceable_or_null(32) ptr @_Znwm(i64 noundef 32) #28, !noalias !1040
  store i32 1, ptr %21, align 4, !noalias !1040
  %22 = getelementptr inbounds nuw i8, ptr %21, i64 8
  store ptr @_ZN9QtPrivate11QSlotObjectIM14SyntaxLineEditFvRK7QStringENS_4ListIJS4_EEEvE4implEiPNS_15QSlotObjectBaseEP7QObjectPPvPb, ptr %22, align 8, !noalias !1040
  %23 = getelementptr inbounds nuw i8, ptr %21, i64 16
  store i64 ptrtoint (ptr @_ZN14SyntaxLineEdit12insertFilterERK7QString to i64), ptr %23, align 8, !noalias !1040
  %.repack7.i.i.i.i.i = getelementptr inbounds nuw i8, ptr %21, i64 24
  store i64 0, ptr %.repack7.i.i.i.i.i, align 8, !noalias !1040
  call void @_ZN7QObject11connectImplEPKS_PPvS1_S3_PN9QtPrivate15QSlotObjectBaseEN2Qt14ConnectionTypeEPKiPK11QMetaObject(ptr dead_on_unwind nonnull writable sret(%"class.QMetaObject::Connection") align 8 %8, ptr noundef %14, ptr noundef nonnull %6, ptr noundef %20, ptr noundef nonnull %7, ptr noundef %21, i32 noundef 0, ptr noundef null, ptr noundef nonnull @_ZN29DisplayFilterExpressionDialog16staticMetaObjectE)
  call void @llvm.lifetime.end.p0(i64 16, ptr nonnull %6)
  call void @llvm.lifetime.end.p0(i64 16, ptr nonnull %7)
  call void @_ZN11QMetaObject10ConnectionD1Ev(ptr noundef nonnull align 8 dereferenceable_or_null(8) %8) #25
  call void @_ZN7QWidget4showEv(ptr noundef align 8 dereferenceable_or_null(40) %14)
  call void @llvm.lifetime.end.p0(i64 8, ptr nonnull %8)
  br label %24

24:                                               ; preds = %9, %11, %"_ZN9QtPrivate7FunctorIZN19WiresharkMainWindow25connectAnalyzeMenuActionsEvE3$_2Li0EE4callINS_4ListIJEEEvEEvRS2_PvPS8_.exit", %5
  ret void
}